; Function Attrs: mustprogress nofree norecurse nosync nounwind willreturn memory(argmem: read) uwtable
define hidden noundef i32 @_ZNK11FpuStackSim8get_slotEi(ptr nocapture noundef nonnull readonly align 8 dereferenceable(44) %0, i32 noundef %1) local_unnamed_addr #0 align 2 {
  %3 = getelementptr inbounds i8, ptr %0, i64 8
  %4 = load i32, ptr %3, align 8
  %5 = xor i32 %1, -1
  %6 = add i32 %4, %5
  %7 = getelementptr inbounds i8, ptr %0, i64 12
  %8 = sext i32 %6 to i64
  %9 = getelementptr inbounds [8 x i32], ptr %7, i64 0, i64 %8
  %10 = load i32, ptr %9, align 4
  ret i32 %10
}